; Function Attrs: mustprogress uwtable
define internal void @"_ZNSt17_Function_handlerIFv7cmRangeIPKcEEZN19cmUVReadOnlyProcess5startEP9uv_loop_sSt8functionIFvvEEE3$_2E9_M_invokeERKSt9_Any_dataOS3_"(ptr nocapture noundef nonnull readonly align 8 dereferenceable(16) %0, ptr nocapture noundef nonnull readonly align 8 dereferenceable(16) %1) #0 align 2 {
  %.val = load ptr, ptr %0, align 8
  %.val2 = load ptr, ptr %1, align 8
  %3 = getelementptr inbounds i8, ptr %1, i64 8
  %.val3 = load ptr, ptr %3, align 8
  %4 = getelementptr i8, ptr %.val, i64 56
  %.val.val = load ptr, ptr %4, align 8
  %5 = getelementptr i8, ptr %.val, i64 64
  %.val.val4 = load i8, ptr %5, align 8
  %6 = and i8 %.val.val4, 1
  %.not.i.i.i.i = icmp eq i8 %6, 0
  %.v.i.i.i.i = select i1 %.not.i.i.i.i, i64 48, i64 16
  %7 = getelementptr inbounds i8, ptr %.val.val, i64 %.v.i.i.i.i
  %8 = tail call ptr @_ZNSt7__cxx1112basic_stringIcSt11char_traitsIcESaIcEE3endEv(ptr noundef nonnull align 8 dereferenceable(32) %7) #20
  %9 = tail call ptr @_ZNSt7__cxx1112basic_stringIcSt11char_traitsIcESaIcEE3endEv(ptr noundef nonnull align 8 dereferenceable(32) %7) #20
  %10 = tail call noundef nonnull align 8 dereferenceable(32) ptr @_ZNSt7__cxx1112basic_stringIcSt11char_traitsIcESaIcEE7replaceEN9__gnu_cxx17__normal_iteratorIPKcS4_EES9_S8_S8_(ptr noundef nonnull align 8 dereferenceable(32) %7, ptr %8, ptr %9, ptr noundef %.val2, ptr noundef %.val3)
  ret void
}